; Function Attrs: mustprogress uwtable
define internal fastcc noundef zeroext i1 @_ZN12_GLOBAL__N_111match_valueERNSt7__cxx1112basic_stringIcSt11char_traitsIcESaIcEEERN5Yosys5RTLIL5ConstEb(ptr noundef nonnull align 8 dereferenceable(32) %0, ptr noundef nonnull align 8 dereferenceable(32) %1, i1 noundef zeroext %2) unnamed_addr #4 personality ptr @__gxx_personality_v0 {
  %4 = alloca %"class.std::__cxx11::basic_string", align 8
  %5 = alloca %"class.std::__cxx11::basic_string", align 8
  %6 = alloca %"struct.Yosys::RTLIL::Const", align 8
  br i1 %2, label %7, label %29

7:                                                ; preds = %3
  %8 = load i32, ptr %1, align 8
  %9 = and i32 %8, 1
  %.not = icmp eq i32 %9, 0
  br i1 %.not, label %29, label %10

10:                                               ; preds = %7
  %11 = tail call noundef i64 @_ZNKSt7__cxx1112basic_stringIcSt11char_traitsIcESaIcEE4sizeEv(ptr noundef nonnull align 8 dereferenceable(32) %0) #21
  %12 = and i64 %11, 4294967295
  %.not14 = icmp eq i64 %12, 0
  br i1 %.not14, label %29, label %13

13:                                               ; preds = %10
  %14 = tail call noundef nonnull align 1 dereferenceable(1) ptr @_ZNSt7__cxx1112basic_stringIcSt11char_traitsIcESaIcEE5frontEv(ptr noundef nonnull align 8 dereferenceable(32) %0) #21
  %15 = load i8, ptr %14, align 1
  %16 = icmp eq i8 %15, 34
  br i1 %16, label %17, label %29

17:                                               ; preds = %13
  %18 = tail call noundef nonnull align 1 dereferenceable(1) ptr @_ZNSt7__cxx1112basic_stringIcSt11char_traitsIcESaIcEE4backEv(ptr noundef nonnull align 8 dereferenceable(32) %0) #21
  %19 = load i8, ptr %18, align 1
  %20 = icmp eq i8 %19, 34
  br i1 %20, label %21, label %29

21:                                               ; preds = %17
  %22 = tail call noundef i64 @_ZNKSt7__cxx1112basic_stringIcSt11char_traitsIcESaIcEE4sizeEv(ptr noundef nonnull align 8 dereferenceable(32) %0) #21
  %23 = shl i64 %22, 32
  %sext = add i64 %23, -8589934592
  %24 = ashr exact i64 %sext, 32
  call void @_ZNKSt7__cxx1112basic_stringIcSt11char_traitsIcESaIcEE6substrEmm(ptr dead_on_unwind nonnull writable sret(%"class.std::__cxx11::basic_string") align 8 %4, ptr noundef nonnull align 8 dereferenceable(32) %0, i64 noundef 1, i64 noundef %24)
  invoke void @_ZNK5Yosys5RTLIL5Const13decode_stringB5cxx11Ev(ptr dead_on_unwind nonnull writable sret(%"class.std::__cxx11::basic_string") align 8 %5, ptr noundef nonnull align 8 dereferenceable(32) %1)
          to label %25 unwind label %27

25:                                               ; preds = %21
  %26 = call fastcc noundef zeroext i1 @_ZN12_GLOBAL__N_121string_compare_nocaseERKNSt7__cxx1112basic_stringIcSt11char_traitsIcESaIcEEES7_(ptr noundef nonnull align 8 dereferenceable(32) %4, ptr noundef nonnull align 8 dereferenceable(32) %5)
  call void @_ZNSt7__cxx1112basic_stringIcSt11char_traitsIcESaIcEED1Ev(ptr noundef nonnull align 8 dereferenceable(32) %5) #21
  call void @_ZNSt7__cxx1112basic_stringIcSt11char_traitsIcESaIcEED1Ev(ptr noundef nonnull align 8 dereferenceable(32) %4) #21
  br label %_ZN5Yosys5RTLIL5ConstD2Ev.exit

27:                                               ; preds = %21
  %28 = landingpad { ptr, i32 }
          cleanup
  call void @_ZNSt7__cxx1112basic_stringIcSt11char_traitsIcESaIcEED1Ev(ptr noundef nonnull align 8 dereferenceable(32) %4) #21
  br label %_ZN5Yosys5RTLIL5ConstD2Ev.exit17

29:                                               ; preds = %17, %13, %10, %7, %3
  call fastcc void @_ZN12_GLOBAL__N_110make_valueERNSt7__cxx1112basic_stringIcSt11char_traitsIcESaIcEEE(ptr dead_on_unwind noalias nonnull writable align 8 %6, ptr noundef nonnull align 8 dereferenceable(32) %0)
  %30 = invoke noundef zeroext i1 @_ZNK5Yosys5RTLIL5ConsteqERKS1_(ptr noundef nonnull align 8 dereferenceable(32) %6, ptr noundef nonnull align 8 dereferenceable(32) %1)
          to label %31 unwind label %35

31:                                               ; preds = %29
  %32 = getelementptr inbounds i8, ptr %6, i64 8
  %33 = load ptr, ptr %32, align 8
  %.not.i.i.i.i = icmp eq ptr %33, null
  br i1 %.not.i.i.i.i, label %_ZN5Yosys5RTLIL5ConstD2Ev.exit, label %34

34:                                               ; preds = %31
  call void @_ZdlPv(ptr noundef nonnull %33) #22
  br label %_ZN5Yosys5RTLIL5ConstD2Ev.exit

35:                                               ; preds = %29
  %36 = landingpad { ptr, i32 }
          cleanup
  %37 = getelementptr inbounds i8, ptr %6, i64 8
  %38 = load ptr, ptr %37, align 8
  %.not.i.i.i.i16 = icmp eq ptr %38, null
  br i1 %.not.i.i.i.i16, label %_ZN5Yosys5RTLIL5ConstD2Ev.exit17, label %39

39:                                               ; preds = %35
  call void @_ZdlPv(ptr noundef nonnull %38) #22
  br label %_ZN5Yosys5RTLIL5ConstD2Ev.exit17

_ZN5Yosys5RTLIL5ConstD2Ev.exit:                   ; preds = %34, %31, %25
  %.013 = phi i1 [ %26, %25 ], [ %30, %31 ], [ %30, %34 ]
  ret i1 %.013

_ZN5Yosys5RTLIL5ConstD2Ev.exit17:                 ; preds = %39, %35, %27
  %.pn = phi { ptr, i32 } [ %28, %27 ], [ %36, %35 ], [ %36, %39 ]
  resume { ptr, i32 } %.pn
}